; ModuleID = '53/106.c'
source_filename = "53/106.c"
target datalayout = "e-m:e-p270:32:32-p271:32:32-p272:64:64-i64:64-f80:128-n8:16:32:64-S128"
target triple = "x86_64-pc-linux-gnu"

@.str = private unnamed_addr constant [3 x i8] c"%d\00", align 1
@.str.1 = private unnamed_addr constant [4 x i8] c"%d \00", align 1
@.str.2 = private unnamed_addr constant [4 x i8] c",%d\00", align 1

; Function Attrs: noinline nounwind uwtable
define dso_local void @main() #0 {
  %1 = alloca i32, align 4
  %2 = alloca i32*, align 8
  %3 = alloca i32, align 4
  %4 = alloca i32, align 4
  %5 = alloca [100 x i32], align 16
  %6 = bitcast [100 x i32]* %5 to i8*
  call void @llvm.memset.p0i8.i64(i8* align 16 %6, i8 0, i64 400, i1 false)
  %7 = call i32 (i8*, ...) @__isoc99_scanf(i8* getelementptr inbounds ([3 x i8], [3 x i8]* @.str, i64 0, i64 0), i32* %1)
  %8 = load i32, i32* %1, align 4
  %9 = sext i32 %8 to i64
  %10 = call noalias i8* @calloc(i64 %9, i64 4) #4
  %11 = bitcast i8* %10 to i32*
  store i32* %11, i32** %2, align 8
  store i32 0, i32* %3, align 4
  br label %12

12:                                               ; preds = %23, %0
  %13 = load i32, i32* %3, align 4
  %14 = load i32, i32* %1, align 4
  %15 = sub nsw i32 %14, 1
  %16 = icmp slt i32 %13, %15
  br i1 %16, label %17, label %26

17:                                               ; preds = %12
  %18 = load i32*, i32** %2, align 8
  %19 = load i32, i32* %3, align 4
  %20 = sext i32 %19 to i64
  %21 = getelementptr inbounds i32, i32* %18, i64 %20
  %22 = call i32 (i8*, ...) @__isoc99_scanf(i8* getelementptr inbounds ([4 x i8], [4 x i8]* @.str.1, i64 0, i64 0), i32* %21)
  br label %23

23:                                               ; preds = %17
  %24 = load i32, i32* %3, align 4
  %25 = add nsw i32 %24, 1
  store i32 %25, i32* %3, align 4
  br label %12

26:                                               ; preds = %12
  %27 = load i32*, i32** %2, align 8
  %28 = load i32, i32* %1, align 4
  %29 = sext i32 %28 to i64
  %30 = getelementptr inbounds i32, i32* %27, i64 %29
  %31 = getelementptr inbounds i32, i32* %30, i64 -1
  %32 = call i32 (i8*, ...) @__isoc99_scanf(i8* getelementptr inbounds ([3 x i8], [3 x i8]* @.str, i64 0, i64 0), i32* %31)
  %33 = load i32*, i32** %2, align 8
  %34 = load i32, i32* %33, align 4
  %35 = call i32 (i8*, ...) @printf(i8* getelementptr inbounds ([3 x i8], [3 x i8]* @.str, i64 0, i64 0), i32 %34)
  store i32 1, i32* %3, align 4
  br label %36

36:                                               ; preds = %79, %26
  %37 = load i32, i32* %3, align 4
  %38 = load i32, i32* %1, align 4
  %39 = icmp slt i32 %37, %38
  br i1 %39, label %40, label %82

40:                                               ; preds = %36
  store i32 0, i32* %4, align 4
  br label %41

41:                                               ; preds = %62, %40
  %42 = load i32, i32* %4, align 4
  %43 = load i32, i32* %3, align 4
  %44 = icmp slt i32 %42, %43
  br i1 %44, label %45, label %65

45:                                               ; preds = %41
  %46 = load i32*, i32** %2, align 8
  %47 = load i32, i32* %3, align 4
  %48 = sext i32 %47 to i64
  %49 = getelementptr inbounds i32, i32* %46, i64 %48
  %50 = load i32, i32* %49, align 4
  %51 = load i32*, i32** %2, align 8
  %52 = load i32, i32* %4, align 4
  %53 = sext i32 %52 to i64
  %54 = getelementptr inbounds i32, i32* %51, i64 %53
  %55 = load i32, i32* %54, align 4
  %56 = icmp eq i32 %50, %55
  br i1 %56, label %57, label %61

57:                                               ; preds = %45
  %58 = load i32, i32* %3, align 4
  %59 = sext i32 %58 to i64
  %60 = getelementptr inbounds [100 x i32], [100 x i32]* %5, i64 0, i64 %59
  store i32 1, i32* %60, align 4
  br label %61

61:                                               ; preds = %57, %45
  br label %62

62:                                               ; preds = %61
  %63 = load i32, i32* %4, align 4
  %64 = add nsw i32 %63, 1
  store i32 %64, i32* %4, align 4
  br label %41

65:                                               ; preds = %41
  %66 = load i32, i32* %3, align 4
  %67 = sext i32 %66 to i64
  %68 = getelementptr inbounds [100 x i32], [100 x i32]* %5, i64 0, i64 %67
  %69 = load i32, i32* %68, align 4
  %70 = icmp eq i32 %69, 0
  br i1 %70, label %71, label %78

71:                                               ; preds = %65
  %72 = load i32*, i32** %2, align 8
  %73 = load i32, i32* %3, align 4
  %74 = sext i32 %73 to i64
  %75 = getelementptr inbounds i32, i32* %72, i64 %74
  %76 = load i32, i32* %75, align 4
  %77 = call i32 (i8*, ...) @printf(i8* getelementptr inbounds ([4 x i8], [4 x i8]* @.str.2, i64 0, i64 0), i32 %76)
  br label %78

78:                                               ; preds = %71, %65
  br label %79

79:                                               ; preds = %78
  %80 = load i32, i32* %3, align 4
  %81 = add nsw i32 %80, 1
  store i32 %81, i32* %3, align 4
  br label %36

82:                                               ; preds = %36
  ret void
}

; Function Attrs: argmemonly nounwind willreturn
declare void @llvm.memset.p0i8.i64(i8* nocapture writeonly, i8, i64, i1 immarg) #1

declare dso_local i32 @__isoc99_scanf(i8*, ...) #2

; Function Attrs: nounwind
declare dso_local noalias i8* @calloc(i64, i64) #3

declare dso_local i32 @printf(i8*, ...) #2


!llvm.module.flags = !{!0}
!llvm.ident = !{!1}

!0 = !{i32 1, !"wchar_size", i32 4}
!1 = !{!"clang version 10.0.0-4ubuntu1 "}
